; Function Attrs: mustprogress uwtable
define hidden void @_ZN2cv6detail8tracking15online_boosting8Detector23prepareDetectionsMemoryEi(ptr noundef nonnull align 8 dereferenceable(376) %0, i32 noundef %1) local_unnamed_addr #3 align 2 personality ptr @__gxx_personality_v0 {
  %3 = getelementptr inbounds nuw i8, ptr %0, i64 72
  %4 = load i32, ptr %3, align 8, !tbaa !106
  %.not = icmp sgt i32 %1, %4
  br i1 %.not, label %5, label %_ZNSt6vectorIiSaIiEE6resizeEm.exit

5:                                                ; preds = %2
  store i32 %1, ptr %3, align 8, !tbaa !106
  %6 = getelementptr inbounds nuw i8, ptr %0, i64 48
  %7 = sext i32 %1 to i64
  %8 = getelementptr inbounds nuw i8, ptr %0, i64 56
  %9 = load ptr, ptr %8, align 8, !tbaa !107
  %10 = load ptr, ptr %6, align 8, !tbaa !108
  %11 = ptrtoint ptr %9 to i64
  %12 = ptrtoint ptr %10 to i64
  %13 = sub i64 %11, %12
  %14 = ashr exact i64 %13, 2
  %15 = icmp ult i64 %14, %7
  br i1 %15, label %16, label %18

16:                                               ; preds = %5
  %17 = sub nuw nsw i64 %7, %14
  tail call void @_ZNSt6vectorIiSaIiEE17_M_default_appendEm(ptr noundef nonnull align 8 dereferenceable(24) %6, i64 noundef %17)
  br label %_ZNSt6vectorIiSaIiEE6resizeEm.exit

18:                                               ; preds = %5
  %19 = icmp ugt i64 %14, %7
  br i1 %19, label %20, label %_ZNSt6vectorIiSaIiEE6resizeEm.exit

20:                                               ; preds = %18
  %21 = getelementptr inbounds nuw i32, ptr %10, i64 %7
  %.not.i.i = icmp eq ptr %9, %21
  br i1 %.not.i.i, label %_ZNSt6vectorIiSaIiEE6resizeEm.exit, label %22

22:                                               ; preds = %20
  store ptr %21, ptr %8, align 8, !tbaa !107
  br label %_ZNSt6vectorIiSaIiEE6resizeEm.exit

_ZNSt6vectorIiSaIiEE6resizeEm.exit:               ; preds = %22, %20, %18, %16, %2
  ret void
}